; Function Attrs: nounwind uwtable
define void @CRYPTO_free(ptr noundef %0, ptr noundef %1, i32 noundef %2) #2 {
  %4 = load ptr, ptr @free_impl, align 8, !tbaa !3
  %.not = icmp eq ptr %4, @CRYPTO_free
  br i1 %.not, label %6, label %5

5:                                                ; preds = %3
  tail call void %4(ptr noundef %0, ptr noundef %1, i32 noundef %2) #11
  br label %7

6:                                                ; preds = %3
  tail call void @free(ptr noundef %0) #11
  br label %7

7:                                                ; preds = %6, %5
  ret void
}